; ModuleID = '2/1221.c'
source_filename = "2/1221.c"
target datalayout = "e-m:e-p270:32:32-p271:32:32-p272:64:64-i64:64-f80:128-n8:16:32:64-S128"
target triple = "x86_64-pc-linux-gnu"

%struct.book = type { i32, [26 x i8] }

@.str = private unnamed_addr constant [3 x i8] c"%d\00", align 1
@.str.1 = private unnamed_addr constant [6 x i8] c"%d %s\00", align 1
@.str.2 = private unnamed_addr constant [7 x i8] c"%c\0A%d\0A\00", align 1
@.str.3 = private unnamed_addr constant [4 x i8] c"%d\0A\00", align 1

; Function Attrs: noinline nounwind uwtable
define dso_local void @main() #0 {
  %1 = alloca %struct.book*, align 8
  %2 = alloca %struct.book*, align 8
  %3 = alloca i32, align 4
  %4 = alloca i32, align 4
  %5 = alloca i32, align 4
  %6 = alloca i32, align 4
  %7 = alloca i32, align 4
  %8 = alloca i32, align 4
  %9 = alloca i32, align 4
  %10 = alloca i32, align 4
  %11 = alloca i32, align 4
  %12 = alloca [26 x i32], align 16
  %13 = bitcast [26 x i32]* %12 to i8*
  call void @llvm.memset.p0i8.i64(i8* align 16 %13, i8 0, i64 104, i1 false)
  %14 = call i32 (i8*, ...) @__isoc99_scanf(i8* getelementptr inbounds ([3 x i8], [3 x i8]* @.str, i64 0, i64 0), i32* %3)
  %15 = load i32, i32* %3, align 4
  %16 = mul nsw i32 %15, 100
  %17 = sext i32 %16 to i64
  %18 = call noalias i8* @malloc(i64 %17) #5
  %19 = bitcast i8* %18 to %struct.book*
  store %struct.book* %19, %struct.book** %2, align 8
  %20 = load %struct.book*, %struct.book** %2, align 8
  store %struct.book* %20, %struct.book** %1, align 8
  store i32 0, i32* %6, align 4
  br label %21

21:                                               ; preds = %63, %0
  %22 = load i32, i32* %6, align 4
  %23 = load i32, i32* %3, align 4
  %24 = icmp slt i32 %22, %23
  br i1 %24, label %25, label %66

25:                                               ; preds = %21
  %26 = load %struct.book*, %struct.book** %2, align 8
  %27 = getelementptr inbounds %struct.book, %struct.book* %26, i32 0, i32 0
  %28 = load %struct.book*, %struct.book** %2, align 8
  %29 = getelementptr inbounds %struct.book, %struct.book* %28, i32 0, i32 1
  %30 = call i32 (i8*, ...) @__isoc99_scanf(i8* getelementptr inbounds ([6 x i8], [6 x i8]* @.str.1, i64 0, i64 0), i32* %27, [26 x i8]* %29)
  %31 = load %struct.book*, %struct.book** %2, align 8
  %32 = getelementptr inbounds %struct.book, %struct.book* %31, i32 0, i32 1
  %33 = getelementptr inbounds [26 x i8], [26 x i8]* %32, i64 0, i64 0
  %34 = call i64 @strlen(i8* %33) #6
  %35 = trunc i64 %34 to i32
  store i32 %35, i32* %4, align 4
  store i32 0, i32* %7, align 4
  br label %36

36:                                               ; preds = %57, %25
  %37 = load i32, i32* %7, align 4
  %38 = load i32, i32* %4, align 4
  %39 = icmp slt i32 %37, %38
  br i1 %39, label %40, label %60

40:                                               ; preds = %36
  %41 = load %struct.book*, %struct.book** %2, align 8
  %42 = getelementptr inbounds %struct.book, %struct.book* %41, i32 0, i32 1
  %43 = load i32, i32* %7, align 4
  %44 = sext i32 %43 to i64
  %45 = getelementptr inbounds [26 x i8], [26 x i8]* %42, i64 0, i64 %44
  %46 = load i8, i8* %45, align 1
  %47 = sext i8 %46 to i32
  %48 = sub nsw i32 %47, 65
  store i32 %48, i32* %5, align 4
  %49 = load i32, i32* %5, align 4
  %50 = sext i32 %49 to i64
  %51 = getelementptr inbounds [26 x i32], [26 x i32]* %12, i64 0, i64 %50
  %52 = load i32, i32* %51, align 4
  %53 = add nsw i32 %52, 1
  %54 = load i32, i32* %5, align 4
  %55 = sext i32 %54 to i64
  %56 = getelementptr inbounds [26 x i32], [26 x i32]* %12, i64 0, i64 %55
  store i32 %53, i32* %56, align 4
  br label %57

57:                                               ; preds = %40
  %58 = load i32, i32* %7, align 4
  %59 = add nsw i32 %58, 1
  store i32 %59, i32* %7, align 4
  br label %36

60:                                               ; preds = %36
  %61 = load %struct.book*, %struct.book** %2, align 8
  %62 = getelementptr inbounds %struct.book, %struct.book* %61, i64 1
  store %struct.book* %62, %struct.book** %2, align 8
  br label %63

63:                                               ; preds = %60
  %64 = load i32, i32* %6, align 4
  %65 = add nsw i32 %64, 1
  store i32 %65, i32* %6, align 4
  br label %21

66:                                               ; preds = %21
  %67 = getelementptr inbounds [26 x i32], [26 x i32]* %12, i64 0, i64 0
  %68 = load i32, i32* %67, align 16
  store i32 %68, i32* %11, align 4
  store i32 0, i32* %8, align 4
  store i32 1, i32* %6, align 4
  br label %69

69:                                               ; preds = %86, %66
  %70 = load i32, i32* %6, align 4
  %71 = icmp slt i32 %70, 26
  br i1 %71, label %72, label %89

72:                                               ; preds = %69
  %73 = load i32, i32* %6, align 4
  %74 = sext i32 %73 to i64
  %75 = getelementptr inbounds [26 x i32], [26 x i32]* %12, i64 0, i64 %74
  %76 = load i32, i32* %75, align 4
  %77 = load i32, i32* %11, align 4
  %78 = icmp sgt i32 %76, %77
  br i1 %78, label %79, label %85

79:                                               ; preds = %72
  %80 = load i32, i32* %6, align 4
  %81 = sext i32 %80 to i64
  %82 = getelementptr inbounds [26 x i32], [26 x i32]* %12, i64 0, i64 %81
  %83 = load i32, i32* %82, align 4
  store i32 %83, i32* %11, align 4
  %84 = load i32, i32* %6, align 4
  store i32 %84, i32* %8, align 4
  br label %85

85:                                               ; preds = %79, %72
  br label %86

86:                                               ; preds = %85
  %87 = load i32, i32* %6, align 4
  %88 = add nsw i32 %87, 1
  store i32 %88, i32* %6, align 4
  br label %69

89:                                               ; preds = %69
  %90 = load i32, i32* %8, align 4
  %91 = add nsw i32 %90, 65
  store i32 %91, i32* %9, align 4
  %92 = load i32, i32* %9, align 4
  %93 = load i32, i32* %11, align 4
  %94 = call i32 (i8*, ...) @printf(i8* getelementptr inbounds ([7 x i8], [7 x i8]* @.str.2, i64 0, i64 0), i32 %92, i32 %93)
  %95 = load %struct.book*, %struct.book** %1, align 8
  store %struct.book* %95, %struct.book** %2, align 8
  store i32 0, i32* %6, align 4
  br label %96

96:                                               ; preds = %136, %89
  %97 = load i32, i32* %6, align 4
  %98 = load i32, i32* %3, align 4
  %99 = icmp slt i32 %97, %98
  br i1 %99, label %100, label %139

100:                                              ; preds = %96
  store i32 0, i32* %10, align 4
  %101 = load %struct.book*, %struct.book** %2, align 8
  %102 = getelementptr inbounds %struct.book, %struct.book* %101, i32 0, i32 1
  %103 = getelementptr inbounds [26 x i8], [26 x i8]* %102, i64 0, i64 0
  %104 = call i64 @strlen(i8* %103) #6
  %105 = trunc i64 %104 to i32
  store i32 %105, i32* %4, align 4
  store i32 0, i32* %7, align 4
  br label %106

106:                                              ; preds = %122, %100
  %107 = load i32, i32* %7, align 4
  %108 = load i32, i32* %4, align 4
  %109 = icmp slt i32 %107, %108
  br i1 %109, label %110, label %125

110:                                              ; preds = %106
  %111 = load %struct.book*, %struct.book** %2, align 8
  %112 = getelementptr inbounds %struct.book, %struct.book* %111, i32 0, i32 1
  %113 = load i32, i32* %7, align 4
  %114 = sext i32 %113 to i64
  %115 = getelementptr inbounds [26 x i8], [26 x i8]* %112, i64 0, i64 %114
  %116 = load i8, i8* %115, align 1
  %117 = sext i8 %116 to i32
  %118 = load i32, i32* %9, align 4
  %119 = icmp eq i32 %117, %118
  br i1 %119, label %120, label %121

120:                                              ; preds = %110
  store i32 1, i32* %10, align 4
  br label %125

121:                                              ; preds = %110
  br label %122

122:                                              ; preds = %121
  %123 = load i32, i32* %7, align 4
  %124 = add nsw i32 %123, 1
  store i32 %124, i32* %7, align 4
  br label %106

125:                                              ; preds = %120, %106
  %126 = load i32, i32* %10, align 4
  %127 = icmp eq i32 %126, 1
  br i1 %127, label %128, label %133

128:                                              ; preds = %125
  %129 = load %struct.book*, %struct.book** %2, align 8
  %130 = getelementptr inbounds %struct.book, %struct.book* %129, i32 0, i32 0
  %131 = load i32, i32* %130, align 4
  %132 = call i32 (i8*, ...) @printf(i8* getelementptr inbounds ([4 x i8], [4 x i8]* @.str.3, i64 0, i64 0), i32 %131)
  br label %133

133:                                              ; preds = %128, %125
  %134 = load %struct.book*, %struct.book** %2, align 8
  %135 = getelementptr inbounds %struct.book, %struct.book* %134, i64 1
  store %struct.book* %135, %struct.book** %2, align 8
  br label %136

136:                                              ; preds = %133
  %137 = load i32, i32* %6, align 4
  %138 = add nsw i32 %137, 1
  store i32 %138, i32* %6, align 4
  br label %96

139:                                              ; preds = %96
  ret void
}

; Function Attrs: argmemonly nounwind willreturn
declare void @llvm.memset.p0i8.i64(i8* nocapture writeonly, i8, i64, i1 immarg) #1

declare dso_local i32 @__isoc99_scanf(i8*, ...) #2

; Function Attrs: nounwind
declare dso_local noalias i8* @malloc(i64) #3

; Function Attrs: nounwind readonly
declare dso_local i64 @strlen(i8*) #4

declare dso_local i32 @printf(i8*, ...) #2


!llvm.module.flags = !{!0}
!llvm.ident = !{!1}

!0 = !{i32 1, !"wchar_size", i32 4}
!1 = !{!"clang version 10.0.0-4ubuntu1 "}
